target datalayout = "e-m:e-p270:32:32-p271:32:32-p272:64:64-i64:64-i128:128-f80:128-n8:16:32:64-S128"
target triple = "x86_64-pc-linux-gnu"

%class.GrowableArrayBase = type { i32, i32 }
%class.GrowableArrayView.36 = type { %class.GrowableArrayBase, ptr }

; Function Attrs: mustprogress nounwind uwtable
define linkonce_odr hidden noundef ptr @_ZNK17GrowableArrayViewIPK8VPointerE6adr_atEi(ptr noundef nonnull align 8 dereferenceable(16) %0, i32 noundef %1) #1 comdat align 2 {
  %3 = alloca ptr, align 8
  %4 = alloca i32, align 4
  store ptr %0, ptr %3, align 8
  store i32 %1, ptr %4, align 4
  %5 = load ptr, ptr %3, align 8
  %6 = getelementptr inbounds %class.GrowableArrayView.36, ptr %5, i32 0, i32 1
  %7 = load ptr, ptr %6, align 8
  %8 = load i32, ptr %4, align 4
  %9 = sext i32 %8 to i64
  %10 = getelementptr inbounds ptr, ptr %7, i64 %9
  ret ptr %10
}

; Function Attrs: mustprogress nounwind uwtable
define hidden noundef i32 @_ZN9SuperWord14find_group_endERK13GrowableArrayIPK8VPointerEi(ptr noundef nonnull align 8 dereferenceable(24) %0, i32 noundef %1) #1 align 2 {
  %3 = alloca ptr, align 8
  %4 = alloca i32, align 4
  %5 = alloca i32, align 4
  store ptr %0, ptr %3, align 8
  store i32 %1, ptr %4, align 4
  %6 = load i32, ptr %4, align 4
  %7 = add nsw i32 %6, 1
  store i32 %7, ptr %5, align 4
  br label %8

8:                                                ; preds = %24, %2
  %9 = load i32, ptr %5, align 4
  %10 = load ptr, ptr %3, align 8
  %11 = call noundef i32 @_ZNK17GrowableArrayBase6lengthEv(ptr noundef nonnull align 4 dereferenceable(8) %10)
  %12 = icmp slt i32 %9, %11
  br i1 %12, label %13, label %22

13:                                               ; preds = %8
  %14 = load ptr, ptr %3, align 8
  %15 = load i32, ptr %4, align 4
  %16 = call noundef ptr @_ZNK17GrowableArrayViewIPK8VPointerE6adr_atEi(ptr noundef nonnull align 8 dereferenceable(16) %14, i32 noundef %15)
  %17 = load ptr, ptr %3, align 8
  %18 = load i32, ptr %5, align 4
  %19 = call noundef ptr @_ZNK17GrowableArrayViewIPK8VPointerE6adr_atEi(ptr noundef nonnull align 8 dereferenceable(16) %17, i32 noundef %18)
  %20 = call noundef i32 @_ZN8VPointer21cmp_for_sort_by_groupEPPKS_S2_(ptr noundef %16, ptr noundef %19)
  %21 = icmp eq i32 %20, 0
  br label %22

22:                                               ; preds = %13, %8
  %23 = phi i1 [ false, %8 ], [ %21, %13 ]
  br i1 %23, label %24, label %27

24:                                               ; preds = %22
  %25 = load i32, ptr %5, align 4
  %26 = add nsw i32 %25, 1
  store i32 %26, ptr %5, align 4
  br label %8, !llvm.loop !29

27:                                               ; preds = %22
  %28 = load i32, ptr %5, align 4
  ret i32 %28
}

; Function Attrs: mustprogress nounwind uwtable
define linkonce_odr hidden noundef i32 @_ZNK17GrowableArrayBase6lengthEv(ptr noundef nonnull align 4 dereferenceable(8) %0) #1 comdat align 2 {
  %2 = alloca ptr, align 8
  store ptr %0, ptr %2, align 8
  %3 = load ptr, ptr %2, align 8
  %4 = getelementptr inbounds %class.GrowableArrayBase, ptr %3, i32 0, i32 0
  %5 = load i32, ptr %4, align 4
  ret i32 %5
}

; Function Attrs: mustprogress nounwind uwtable
define hidden void @_ZN9SuperWord41create_adjacent_memop_pairs_in_all_groupsERK13GrowableArrayIPK8VPointerE(ptr noundef nonnull align 8 dereferenceable(248) %0, ptr noundef nonnull align 8 dereferenceable(24) %1) #1 align 2 {
  %3 = alloca ptr, align 8
  %4 = alloca ptr, align 8
  %5 = alloca i32, align 4
  %6 = alloca i32, align 4
  store ptr %0, ptr %3, align 8
  store ptr %1, ptr %4, align 8
  %7 = load ptr, ptr %3, align 8
  store i32 0, ptr %5, align 4
  br label %8

8:                                                ; preds = %13, %2
  %9 = load i32, ptr %5, align 4
  %10 = load ptr, ptr %4, align 8
  %11 = call noundef i32 @_ZNK17GrowableArrayBase6lengthEv(ptr noundef nonnull align 4 dereferenceable(8) %10)
  %12 = icmp slt i32 %9, %11
  br i1 %12, label %13, label %21

13:                                               ; preds = %8
  %14 = load ptr, ptr %4, align 8
  %15 = load i32, ptr %5, align 4
  %16 = call noundef i32 @_ZN9SuperWord14find_group_endERK13GrowableArrayIPK8VPointerEi(ptr noundef nonnull align 8 dereferenceable(24) %14, i32 noundef %15)
  store i32 %16, ptr %6, align 4
  %17 = load ptr, ptr %4, align 8
  %18 = load i32, ptr %5, align 4
  %19 = load i32, ptr %6, align 4
  call void @_ZN9SuperWord40create_adjacent_memop_pairs_in_one_groupERK13GrowableArrayIPK8VPointerEii(ptr noundef nonnull align 8 dereferenceable(248) %7, ptr noundef nonnull align 8 dereferenceable(24) %17, i32 noundef %18, i32 noundef %19)
  %20 = load i32, ptr %6, align 4
  store i32 %20, ptr %5, align 4
  br label %8, !llvm.loop !28

21:                                               ; preds = %8
  ret void
}