; Function Attrs: mustprogress nounwind uwtable
define hidden void @_ZN9SuperWord41create_adjacent_memop_pairs_in_all_groupsERK13GrowableArrayIPK8VPointerE(ptr noundef nonnull align 8 dereferenceable(248) %0, ptr nocapture noundef nonnull readonly align 8 dereferenceable(24) %1) local_unnamed_addr #0 align 2 {
  %3 = load i32, ptr %1, align 8
  %4 = icmp sgt i32 %3, 0
  br i1 %4, label %.lr.ph, label %._crit_edge

.lr.ph:                                           ; preds = %2
  %5 = getelementptr inbounds i8, ptr %1, i64 8
  br label %6

6:                                                ; preds = %.lr.ph, %_ZN9SuperWord14find_group_endERK13GrowableArrayIPK8VPointerEi.exit
  %.08 = phi i32 [ 0, %.lr.ph ], [ %18, %_ZN9SuperWord14find_group_endERK13GrowableArrayIPK8VPointerEi.exit ]
  %7 = sext i32 %.08 to i64
  br label %8

8:                                                ; preds = %12, %6
  %indvars.iv.i = phi i64 [ %indvars.iv.next.i, %12 ], [ %7, %6 ]
  %indvars.iv.next.i = add nsw i64 %indvars.iv.i, 1
  %9 = load i32, ptr %1, align 8
  %10 = sext i32 %9 to i64
  %11 = icmp slt i64 %indvars.iv.next.i, %10
  br i1 %11, label %12, label %_ZN9SuperWord14find_group_endERK13GrowableArrayIPK8VPointerEi.exit

12:                                               ; preds = %8
  %13 = load ptr, ptr %5, align 8
  %14 = getelementptr inbounds ptr, ptr %13, i64 %7
  %15 = getelementptr inbounds ptr, ptr %13, i64 %indvars.iv.next.i
  %16 = tail call noundef i32 @_ZN8VPointer21cmp_for_sort_by_groupEPPKS_S2_(ptr noundef %14, ptr noundef %15) #12
  %17 = icmp eq i32 %16, 0
  br i1 %17, label %8, label %_ZN9SuperWord14find_group_endERK13GrowableArrayIPK8VPointerEi.exit, !llvm.loop !26

_ZN9SuperWord14find_group_endERK13GrowableArrayIPK8VPointerEi.exit: ; preds = %8, %12
  %18 = trunc nsw i64 %indvars.iv.next.i to i32
  tail call void @_ZN9SuperWord40create_adjacent_memop_pairs_in_one_groupERK13GrowableArrayIPK8VPointerEii(ptr noundef nonnull align 8 dereferenceable(248) %0, ptr noundef nonnull align 8 dereferenceable(24) %1, i32 noundef %.08, i32 noundef %18)
  %19 = load i32, ptr %1, align 8
  %20 = icmp sgt i32 %19, %18
  br i1 %20, label %6, label %._crit_edge, !llvm.loop !27

._crit_edge:                                      ; preds = %_ZN9SuperWord14find_group_endERK13GrowableArrayIPK8VPointerEi.exit, %2
  ret void
}